; Function Attrs: mustprogress nounwind uwtable
define hidden void @_ZN7nanogui6WidgetD2Ev(ptr noundef nonnull align 8 dereferenceable(140) %0) unnamed_addr #2 align 2 personality ptr @__gxx_personality_v0 {
  store ptr getelementptr inbounds ({ [17 x ptr] }, ptr @_ZTVN7nanogui6WidgetE, i64 0, i32 0, i64 2), ptr %0, align 8
  %2 = tail call noundef i32 @_ZSt19uncaught_exceptionsv() #20
  %3 = icmp sgt i32 %2, 0
  br i1 %3, label %.loopexit, label %4

4:                                                ; preds = %1
  %5 = getelementptr inbounds i8, ptr %0, i64 64
  %6 = load ptr, ptr %5, align 8
  %7 = getelementptr inbounds i8, ptr %0, i64 72
  %8 = load ptr, ptr %7, align 8
  %.not910 = icmp eq ptr %6, %8
  br i1 %.not910, label %.loopexit, label %.lr.ph

.lr.ph:                                           ; preds = %4, %11
  %.sroa.06.011 = phi ptr [ %12, %11 ], [ %6, %4 ]
  %9 = load ptr, ptr %.sroa.06.011, align 8
  %.not = icmp eq ptr %9, null
  br i1 %.not, label %11, label %10

10:                                               ; preds = %.lr.ph
  tail call void @_ZNK7nanogui6Object7dec_refEb(ptr noundef nonnull align 8 dereferenceable(12) %9, i1 noundef zeroext true) #18
  br label %11

11:                                               ; preds = %.lr.ph, %10
  %12 = getelementptr inbounds i8, ptr %.sroa.06.011, i64 8
  %.not9 = icmp eq ptr %12, %8
  br i1 %.not9, label %.loopexit, label %.lr.ph

.loopexit:                                        ; preds = %11, %4, %1
  %13 = getelementptr inbounds i8, ptr %0, i64 96
  tail call void @_ZNSt7__cxx1112basic_stringIcSt11char_traitsIcESaIcEED1Ev(ptr noundef nonnull align 8 dereferenceable(32) %13) #18
  %14 = getelementptr inbounds i8, ptr %0, i64 64
  %15 = load ptr, ptr %14, align 8
  %.not.i.i.i = icmp eq ptr %15, null
  br i1 %.not.i.i.i, label %_ZNSt6vectorIPN7nanogui6WidgetESaIS2_EED2Ev.exit, label %16

16:                                               ; preds = %.loopexit
  tail call void @_ZdlPv(ptr noundef nonnull %15) #19
  br label %_ZNSt6vectorIPN7nanogui6WidgetESaIS2_EED2Ev.exit

_ZNSt6vectorIPN7nanogui6WidgetESaIS2_EED2Ev.exit: ; preds = %.loopexit, %16
  %17 = getelementptr inbounds i8, ptr %0, i64 32
  %18 = load ptr, ptr %17, align 8
  %.not.i = icmp eq ptr %18, null
  br i1 %.not.i, label %_ZN7nanogui3refINS_6LayoutEED2Ev.exit, label %19

19:                                               ; preds = %_ZNSt6vectorIPN7nanogui6WidgetESaIS2_EED2Ev.exit
  tail call void @_ZNK7nanogui6Object7dec_refEb(ptr noundef nonnull align 8 dereferenceable(12) %18, i1 noundef zeroext true) #18
  br label %_ZN7nanogui3refINS_6LayoutEED2Ev.exit

_ZN7nanogui3refINS_6LayoutEED2Ev.exit:            ; preds = %_ZNSt6vectorIPN7nanogui6WidgetESaIS2_EED2Ev.exit, %19
  %20 = getelementptr inbounds i8, ptr %0, i64 24
  %21 = load ptr, ptr %20, align 8
  %.not.i5 = icmp eq ptr %21, null
  br i1 %.not.i5, label %_ZN7nanogui3refINS_5ThemeEED2Ev.exit, label %22

22:                                               ; preds = %_ZN7nanogui3refINS_6LayoutEED2Ev.exit
  tail call void @_ZNK7nanogui6Object7dec_refEb(ptr noundef nonnull align 8 dereferenceable(12) %21, i1 noundef zeroext true) #18
  br label %_ZN7nanogui3refINS_5ThemeEED2Ev.exit

_ZN7nanogui3refINS_5ThemeEED2Ev.exit:             ; preds = %_ZN7nanogui3refINS_6LayoutEED2Ev.exit, %22
  tail call void @_ZN7nanogui6ObjectD2Ev(ptr noundef nonnull align 8 dereferenceable(12) %0) #18
  ret void
}